; Function Attrs: mustprogress nounwind uwtable
define dso_local void @_ZN5clang16OMPClausePrinter22VisitOMPAffinityClauseEPNS_17OMPAffinityClauseE(ptr noundef nonnull align 8 dereferenceable(16) %0, ptr noundef %1) local_unnamed_addr #1 align 2 {
  %3 = alloca %"class.llvm::StringRef", align 8
  %4 = getelementptr inbounds nuw i8, ptr %1, i64 16
  %5 = load i32, ptr %4, align 4
  %6 = icmp eq i32 %5, 0
  br i1 %6, label %_ZN4llvm11raw_ostreamlsEPKc.exit15, label %7

7:                                                ; preds = %2
  %8 = load ptr, ptr %0, align 8
  %9 = getelementptr inbounds nuw i8, ptr %8, i64 24
  %10 = load ptr, ptr %9, align 8
  %11 = getelementptr inbounds nuw i8, ptr %8, i64 32
  %12 = load ptr, ptr %11, align 8
  %13 = ptrtoint ptr %10 to i64
  %14 = ptrtoint ptr %12 to i64
  %15 = sub i64 %13, %14
  %16 = icmp ult i64 %15, 8
  br i1 %16, label %17, label %19

17:                                               ; preds = %7
  %18 = tail call noundef nonnull align 8 dereferenceable(48) ptr @_ZN4llvm11raw_ostream5writeEPKcm(ptr noundef nonnull align 8 dereferenceable(48) %8, ptr noundef nonnull @.str.102, i64 noundef 8) #22
  br label %_ZN4llvm11raw_ostreamlsEPKc.exit

19:                                               ; preds = %7
  store i64 8751735898823353953, ptr %12, align 1
  %20 = load ptr, ptr %11, align 8
  %21 = getelementptr inbounds nuw i8, ptr %20, i64 8
  store ptr %21, ptr %11, align 8
  br label %_ZN4llvm11raw_ostreamlsEPKc.exit

_ZN4llvm11raw_ostreamlsEPKc.exit:                 ; preds = %17, %19
  %22 = getelementptr inbounds nuw i8, ptr %1, i64 24
  %23 = load i32, ptr %4, align 4
  %24 = zext i32 %23 to i64
  %25 = getelementptr inbounds nuw ptr, ptr %22, i64 %24
  %26 = load ptr, ptr %25, align 8
  %.not = icmp eq ptr %26, null
  br i1 %.not, label %.split6, label %.split

.split:                                           ; preds = %_ZN4llvm11raw_ostreamlsEPKc.exit
  %27 = load ptr, ptr %0, align 8
  %28 = getelementptr inbounds nuw i8, ptr %27, i64 24
  %29 = load ptr, ptr %28, align 8
  %30 = getelementptr inbounds nuw i8, ptr %27, i64 32
  %31 = load ptr, ptr %30, align 8
  %32 = icmp eq ptr %29, %31
  br i1 %32, label %33, label %35

33:                                               ; preds = %.split
  %34 = tail call noundef nonnull align 8 dereferenceable(48) ptr @_ZN4llvm11raw_ostream5writeEPKcm(ptr noundef nonnull align 8 dereferenceable(48) %27, ptr noundef nonnull @.str.29, i64 noundef 1) #22
  br label %_ZN4llvm11raw_ostreamlsEPKc.exit9

35:                                               ; preds = %.split
  store i8 40, ptr %31, align 1
  %36 = load ptr, ptr %30, align 8
  %37 = getelementptr inbounds nuw i8, ptr %36, i64 1
  store ptr %37, ptr %30, align 8
  br label %_ZN4llvm11raw_ostreamlsEPKc.exit9

_ZN4llvm11raw_ostreamlsEPKc.exit9:                ; preds = %33, %35
  %38 = load ptr, ptr %0, align 8
  %39 = getelementptr inbounds nuw i8, ptr %0, i64 8
  %40 = load ptr, ptr %39, align 8
  store ptr @.str.2, ptr %3, align 8
  %41 = getelementptr inbounds nuw i8, ptr %3, i64 8
  store i64 1, ptr %41, align 8
  tail call void @_ZNK5clang4Stmt11printPrettyERN4llvm11raw_ostreamEPNS_13PrinterHelperERKNS_14PrintingPolicyEjNS1_9StringRefEPKNS_10ASTContextE(ptr noundef nonnull align 8 dereferenceable(8) %26, ptr noundef nonnull align 8 dereferenceable(48) %38, ptr noundef null, ptr noundef nonnull align 8 dereferenceable(16) %40, i32 noundef 0, ptr noundef nonnull byval(%"class.llvm::StringRef") align 8 %3, ptr noundef null) #22
  %42 = load ptr, ptr %0, align 8
  %43 = getelementptr inbounds nuw i8, ptr %42, i64 24
  %44 = load ptr, ptr %43, align 8
  %45 = getelementptr inbounds nuw i8, ptr %42, i64 32
  %46 = load ptr, ptr %45, align 8
  %47 = ptrtoint ptr %44 to i64
  %48 = ptrtoint ptr %46 to i64
  %49 = sub i64 %47, %48
  %50 = icmp ult i64 %49, 2
  br i1 %50, label %51, label %53

51:                                               ; preds = %_ZN4llvm11raw_ostreamlsEPKc.exit9
  %52 = tail call noundef nonnull align 8 dereferenceable(48) ptr @_ZN4llvm11raw_ostream5writeEPKcm(ptr noundef nonnull align 8 dereferenceable(48) %42, ptr noundef nonnull @.str.87, i64 noundef 2) #22
  br label %.split6

53:                                               ; preds = %_ZN4llvm11raw_ostreamlsEPKc.exit9
  store i16 14880, ptr %46, align 1
  %54 = load ptr, ptr %45, align 8
  %55 = getelementptr inbounds nuw i8, ptr %54, i64 2
  store ptr %55, ptr %45, align 8
  br label %.split6

.split6:                                          ; preds = %53, %51, %_ZN4llvm11raw_ostreamlsEPKc.exit
  %.sink = phi i8 [ 40, %_ZN4llvm11raw_ostreamlsEPKc.exit ], [ 32, %51 ], [ 32, %53 ]
  tail call void @_ZN5clang16OMPClausePrinter18VisitOMPClauseListINS_17OMPAffinityClauseEEEvPT_c(ptr noundef nonnull align 8 dereferenceable(16) %0, ptr noundef nonnull %1, i8 noundef signext %.sink)
  %56 = load ptr, ptr %0, align 8
  %57 = getelementptr inbounds nuw i8, ptr %56, i64 24
  %58 = load ptr, ptr %57, align 8
  %59 = getelementptr inbounds nuw i8, ptr %56, i64 32
  %60 = load ptr, ptr %59, align 8
  %61 = icmp eq ptr %58, %60
  br i1 %61, label %62, label %64

62:                                               ; preds = %.split6
  %63 = tail call noundef nonnull align 8 dereferenceable(48) ptr @_ZN4llvm11raw_ostream5writeEPKcm(ptr noundef nonnull align 8 dereferenceable(48) %56, ptr noundef nonnull @.str.3, i64 noundef 1) #22
  br label %_ZN4llvm11raw_ostreamlsEPKc.exit15

64:                                               ; preds = %.split6
  store i8 41, ptr %60, align 1
  %65 = load ptr, ptr %59, align 8
  %66 = getelementptr inbounds nuw i8, ptr %65, i64 1
  store ptr %66, ptr %59, align 8
  br label %_ZN4llvm11raw_ostreamlsEPKc.exit15

_ZN4llvm11raw_ostreamlsEPKc.exit15:               ; preds = %64, %62, %2
  ret void
}